target datalayout = "e-m:e-p270:32:32-p271:32:32-p272:64:64-i64:64-i128:128-f80:128-n8:16:32:64-S128"
target triple = "x86_64-pc-linux-gnu"

%class.AdapterFingerPrint = type <{ %union.anon.10, i32, [4 x i8] }>
%union.anon.10 = type { ptr, [8 x i8] }
%class.AdapterHandlerEntry = type { ptr, ptr, ptr, ptr, ptr }
%class.stringStream = type <{ %class.outputStream, ptr, i64, i64, i8, [48 x i8], [7 x i8] }>
%class.outputStream = type { ptr, i32, i8, i32, i64, %class.TimeStamp, ptr, i64 }
%class.TimeStamp = type { i64 }

@.str.50 = private unnamed_addr constant [17 x i8] c"AHE@0x%016lx: %s\00", align 1
@.str.51 = private unnamed_addr constant [15 x i8] c" i2c: 0x%016lx\00", align 1
@.str.52 = private unnamed_addr constant [15 x i8] c" c2i: 0x%016lx\00", align 1
@.str.53 = private unnamed_addr constant [17 x i8] c" c2iUV: 0x%016lx\00", align 1
@.str.54 = private unnamed_addr constant [18 x i8] c" c2iNCI: 0x%016lx\00", align 1
@.str.66 = private unnamed_addr constant [3 x i8] c"0x\00", align 1
@.str.67 = private unnamed_addr constant [3 x i8] c"%x\00", align 1

; Function Attrs: mustprogress nounwind uwtable
define linkonce_odr hidden noundef i32 @_ZN18AdapterFingerPrint5valueEi(ptr noundef nonnull align 8 dereferenceable(20) %0, i32 noundef %1) #1 comdat align 2 {
  %3 = alloca i32, align 4
  %4 = alloca ptr, align 8
  %5 = alloca i32, align 4
  store ptr %0, ptr %4, align 8
  store i32 %1, ptr %5, align 4
  %6 = load ptr, ptr %4, align 8
  %7 = getelementptr inbounds %class.AdapterFingerPrint, ptr %6, i32 0, i32 1
  %8 = load i32, ptr %7, align 8
  %9 = icmp slt i32 %8, 0
  br i1 %9, label %10, label %16

10:                                               ; preds = %2
  %11 = getelementptr inbounds %class.AdapterFingerPrint, ptr %6, i32 0, i32 0
  %12 = load i32, ptr %5, align 4
  %13 = sext i32 %12 to i64
  %14 = getelementptr inbounds [3 x i32], ptr %11, i64 0, i64 %13
  %15 = load i32, ptr %14, align 4
  store i32 %15, ptr %3, align 4
  br label %23

16:                                               ; preds = %2
  %17 = getelementptr inbounds %class.AdapterFingerPrint, ptr %6, i32 0, i32 0
  %18 = load ptr, ptr %17, align 8
  %19 = load i32, ptr %5, align 4
  %20 = sext i32 %19 to i64
  %21 = getelementptr inbounds i32, ptr %18, i64 %20
  %22 = load i32, ptr %21, align 4
  store i32 %22, ptr %3, align 4
  br label %23

23:                                               ; preds = %16, %10
  %24 = load i32, ptr %3, align 4
  ret i32 %24
}

; Function Attrs: mustprogress nounwind uwtable
define linkonce_odr hidden noundef i32 @_ZN18AdapterFingerPrint6lengthEv(ptr noundef nonnull align 8 dereferenceable(20) %0) #1 comdat align 2 {
  %2 = alloca i32, align 4
  %3 = alloca ptr, align 8
  store ptr %0, ptr %3, align 8
  %4 = load ptr, ptr %3, align 8
  %5 = getelementptr inbounds %class.AdapterFingerPrint, ptr %4, i32 0, i32 1
  %6 = load i32, ptr %5, align 8
  %7 = icmp slt i32 %6, 0
  br i1 %7, label %8, label %12

8:                                                ; preds = %1
  %9 = getelementptr inbounds %class.AdapterFingerPrint, ptr %4, i32 0, i32 1
  %10 = load i32, ptr %9, align 8
  %11 = sub nsw i32 0, %10
  store i32 %11, ptr %2, align 4
  br label %15

12:                                               ; preds = %1
  %13 = getelementptr inbounds %class.AdapterFingerPrint, ptr %4, i32 0, i32 1
  %14 = load i32, ptr %13, align 8
  store i32 %14, ptr %2, align 4
  br label %15

15:                                               ; preds = %12, %8
  %16 = load i32, ptr %2, align 4
  ret i32 %16
}

; Function Attrs: mustprogress nounwind uwtable
define linkonce_odr hidden noundef ptr @_ZNK19AdapterHandlerEntry29get_c2i_no_clinit_check_entryEv(ptr noundef nonnull align 8 dereferenceable(40) %0) #1 comdat align 2 {
  %2 = alloca ptr, align 8
  store ptr %0, ptr %2, align 8
  %3 = load ptr, ptr %2, align 8
  %4 = getelementptr inbounds %class.AdapterHandlerEntry, ptr %3, i32 0, i32 4
  %5 = load ptr, ptr %4, align 8
  ret ptr %5
}

; Function Attrs: mustprogress nounwind uwtable
define linkonce_odr hidden noundef ptr @_ZNK19AdapterHandlerEntry24get_c2i_unverified_entryEv(ptr noundef nonnull align 8 dereferenceable(40) %0) #1 comdat align 2 {
  %2 = alloca ptr, align 8
  store ptr %0, ptr %2, align 8
  %3 = load ptr, ptr %2, align 8
  %4 = getelementptr inbounds %class.AdapterHandlerEntry, ptr %3, i32 0, i32 3
  %5 = load ptr, ptr %4, align 8
  ret ptr %5
}

; Function Attrs: mustprogress nounwind uwtable
define linkonce_odr hidden noundef ptr @_ZNK19AdapterHandlerEntry13get_c2i_entryEv(ptr noundef nonnull align 8 dereferenceable(40) %0) #1 comdat align 2 {
  %2 = alloca ptr, align 8
  store ptr %0, ptr %2, align 8
  %3 = load ptr, ptr %2, align 8
  %4 = getelementptr inbounds %class.AdapterHandlerEntry, ptr %3, i32 0, i32 2
  %5 = load ptr, ptr %4, align 8
  ret ptr %5
}

; Function Attrs: mustprogress nounwind uwtable
define linkonce_odr hidden noundef ptr @_ZNK19AdapterHandlerEntry13get_i2c_entryEv(ptr noundef nonnull align 8 dereferenceable(40) %0) #1 comdat align 2 {
  %2 = alloca ptr, align 8
  store ptr %0, ptr %2, align 8
  %3 = load ptr, ptr %2, align 8
  %4 = getelementptr inbounds %class.AdapterHandlerEntry, ptr %3, i32 0, i32 1
  %5 = load ptr, ptr %4, align 8
  ret ptr %5
}

; Function Attrs: mustprogress nounwind uwtable
define linkonce_odr hidden noundef ptr @_ZN18AdapterFingerPrint9as_stringEv(ptr noundef nonnull align 8 dereferenceable(20) %0) #1 comdat align 2 {
  %2 = alloca ptr, align 8
  %3 = alloca %class.stringStream, align 8
  %4 = alloca i32, align 4
  store ptr %0, ptr %2, align 8
  %5 = load ptr, ptr %2, align 8
  call void @_ZN12stringStreamC1Em(ptr noundef nonnull align 8 dereferenceable(129) %3, i64 noundef 0)
  call void (ptr, ptr, ...) @_ZN12outputStream5printEPKcz(ptr noundef nonnull align 8 dereferenceable(56) %3, ptr noundef @.str.66)
  store i32 0, ptr %4, align 4
  br label %6

6:                                                ; preds = %13, %1
  %7 = load i32, ptr %4, align 4
  %8 = call noundef i32 @_ZN18AdapterFingerPrint6lengthEv(ptr noundef nonnull align 8 dereferenceable(20) %5)
  %9 = icmp slt i32 %7, %8
  br i1 %9, label %10, label %16

10:                                               ; preds = %6
  %11 = load i32, ptr %4, align 4
  %12 = call noundef i32 @_ZN18AdapterFingerPrint5valueEi(ptr noundef nonnull align 8 dereferenceable(20) %5, i32 noundef %11)
  call void (ptr, ptr, ...) @_ZN12outputStream5printEPKcz(ptr noundef nonnull align 8 dereferenceable(56) %3, ptr noundef @.str.67, i32 noundef %12)
  br label %13

13:                                               ; preds = %10
  %14 = load i32, ptr %4, align 4
  %15 = add nsw i32 %14, 1
  store i32 %15, ptr %4, align 4
  br label %6, !llvm.loop !25

16:                                               ; preds = %6
  %17 = call noundef ptr @_ZNK12stringStream9as_stringEb(ptr noundef nonnull align 8 dereferenceable(129) %3, i1 noundef zeroext false)
  call void @_ZN12stringStreamD1Ev(ptr noundef nonnull align 8 dereferenceable(129) %3) #10
  ret ptr %17
}

; Function Attrs: mustprogress nounwind uwtable
define linkonce_odr hidden noundef ptr @_ZNK19AdapterHandlerEntry11fingerprintEv(ptr noundef nonnull align 8 dereferenceable(40) %0) #1 comdat align 2 {
  %2 = alloca ptr, align 8
  store ptr %0, ptr %2, align 8
  %3 = load ptr, ptr %2, align 8
  %4 = getelementptr inbounds %class.AdapterHandlerEntry, ptr %3, i32 0, i32 0
  %5 = load ptr, ptr %4, align 8
  ret ptr %5
}

; Function Attrs: mustprogress nounwind uwtable
define linkonce_odr hidden noundef i64 @_Z3p2iPVKv(ptr noundef %0) #1 comdat {
  %2 = alloca ptr, align 8
  store ptr %0, ptr %2, align 8
  %3 = load ptr, ptr %2, align 8
  %4 = ptrtoint ptr %3 to i64
  ret i64 %4
}

; Function Attrs: mustprogress nounwind uwtable
define hidden void @_ZNK19AdapterHandlerEntry16print_adapter_onEP12outputStream(ptr noundef nonnull align 8 dereferenceable(40) %0, ptr noundef %1) #1 align 2 {
  %3 = alloca ptr, align 8
  %4 = alloca ptr, align 8
  store ptr %0, ptr %3, align 8
  store ptr %1, ptr %4, align 8
  %5 = load ptr, ptr %3, align 8
  %6 = load ptr, ptr %4, align 8
  %7 = call noundef i64 @_Z3p2iPVKv(ptr noundef %5)
  %8 = call noundef ptr @_ZNK19AdapterHandlerEntry11fingerprintEv(ptr noundef nonnull align 8 dereferenceable(40) %5)
  %9 = call noundef ptr @_ZN18AdapterFingerPrint9as_stringEv(ptr noundef nonnull align 8 dereferenceable(20) %8)
  call void (ptr, ptr, ...) @_ZN12outputStream5printEPKcz(ptr noundef nonnull align 8 dereferenceable(56) %6, ptr noundef @.str.50, i64 noundef %7, ptr noundef %9)
  %10 = call noundef ptr @_ZNK19AdapterHandlerEntry13get_i2c_entryEv(ptr noundef nonnull align 8 dereferenceable(40) %5)
  %11 = icmp ne ptr %10, null
  br i1 %11, label %12, label %16

12:                                               ; preds = %2
  %13 = load ptr, ptr %4, align 8
  %14 = call noundef ptr @_ZNK19AdapterHandlerEntry13get_i2c_entryEv(ptr noundef nonnull align 8 dereferenceable(40) %5)
  %15 = call noundef i64 @_Z3p2iPVKv(ptr noundef %14)
  call void (ptr, ptr, ...) @_ZN12outputStream5printEPKcz(ptr noundef nonnull align 8 dereferenceable(56) %13, ptr noundef @.str.51, i64 noundef %15)
  br label %16

16:                                               ; preds = %12, %2
  %17 = call noundef ptr @_ZNK19AdapterHandlerEntry13get_c2i_entryEv(ptr noundef nonnull align 8 dereferenceable(40) %5)
  %18 = icmp ne ptr %17, null
  br i1 %18, label %19, label %23

19:                                               ; preds = %16
  %20 = load ptr, ptr %4, align 8
  %21 = call noundef ptr @_ZNK19AdapterHandlerEntry13get_c2i_entryEv(ptr noundef nonnull align 8 dereferenceable(40) %5)
  %22 = call noundef i64 @_Z3p2iPVKv(ptr noundef %21)
  call void (ptr, ptr, ...) @_ZN12outputStream5printEPKcz(ptr noundef nonnull align 8 dereferenceable(56) %20, ptr noundef @.str.52, i64 noundef %22)
  br label %23

23:                                               ; preds = %19, %16
  %24 = call noundef ptr @_ZNK19AdapterHandlerEntry24get_c2i_unverified_entryEv(ptr noundef nonnull align 8 dereferenceable(40) %5)
  %25 = icmp ne ptr %24, null
  br i1 %25, label %26, label %30

26:                                               ; preds = %23
  %27 = load ptr, ptr %4, align 8
  %28 = call noundef ptr @_ZNK19AdapterHandlerEntry24get_c2i_unverified_entryEv(ptr noundef nonnull align 8 dereferenceable(40) %5)
  %29 = call noundef i64 @_Z3p2iPVKv(ptr noundef %28)
  call void (ptr, ptr, ...) @_ZN12outputStream5printEPKcz(ptr noundef nonnull align 8 dereferenceable(56) %27, ptr noundef @.str.53, i64 noundef %29)
  br label %30

30:                                               ; preds = %26, %23
  %31 = call noundef ptr @_ZNK19AdapterHandlerEntry29get_c2i_no_clinit_check_entryEv(ptr noundef nonnull align 8 dereferenceable(40) %5)
  %32 = icmp ne ptr %31, null
  br i1 %32, label %33, label %37

33:                                               ; preds = %30
  %34 = load ptr, ptr %4, align 8
  %35 = call noundef ptr @_ZNK19AdapterHandlerEntry29get_c2i_no_clinit_check_entryEv(ptr noundef nonnull align 8 dereferenceable(40) %5)
  %36 = call noundef i64 @_Z3p2iPVKv(ptr noundef %35)
  call void (ptr, ptr, ...) @_ZN12outputStream5printEPKcz(ptr noundef nonnull align 8 dereferenceable(56) %34, ptr noundef @.str.54, i64 noundef %36)
  br label %37

37:                                               ; preds = %33, %30
  %38 = load ptr, ptr %4, align 8
  call void @_ZN12outputStream2crEv(ptr noundef nonnull align 8 dereferenceable(56) %38)
  ret void
}