; Function Attrs: mustprogress nounwind uwtable
define hidden void @_ZNK19AdapterHandlerEntry16print_adapter_onEP12outputStream(ptr noundef nonnull align 8 dereferenceable(40) %0, ptr noundef %1) local_unnamed_addr #0 align 2 {
  %3 = alloca %class.stringStream, align 8
  %4 = ptrtoint ptr %0 to i64
  %5 = load ptr, ptr %0, align 8
  call void @llvm.lifetime.start.p0(i64 136, ptr nonnull %3)
  call void @_ZN12stringStreamC1Em(ptr noundef nonnull align 8 dereferenceable(129) %3, i64 noundef 0) #18
  call void (ptr, ptr, ...) @_ZN12outputStream5printEPKcz(ptr noundef nonnull align 8 dereferenceable(56) %3, ptr noundef nonnull @.str.66) #18
  %6 = getelementptr inbounds i8, ptr %5, i64 16
  %7 = load i32, ptr %6, align 8
  %.not.i = icmp eq i32 %7, 0
  br i1 %.not.i, label %_ZN18AdapterFingerPrint9as_stringEv.exit, label %.lr.ph.i

.lr.ph.i:                                         ; preds = %2, %.lr.ph.i
  %indvars.iv.i = phi i64 [ %indvars.iv.next.i, %.lr.ph.i ], [ 0, %2 ]
  %8 = phi i32 [ %13, %.lr.ph.i ], [ %7, %2 ]
  %9 = icmp slt i32 %8, 0
  %10 = getelementptr inbounds [3 x i32], ptr %5, i64 0, i64 %indvars.iv.i
  %11 = load ptr, ptr %5, align 8
  %12 = getelementptr inbounds i32, ptr %11, i64 %indvars.iv.i
  %.0.in.i.i = select i1 %9, ptr %10, ptr %12
  %.0.i3.i = load i32, ptr %.0.in.i.i, align 4
  call void (ptr, ptr, ...) @_ZN12outputStream5printEPKcz(ptr noundef nonnull align 8 dereferenceable(56) %3, ptr noundef nonnull @.str.67, i32 noundef %.0.i3.i) #18
  %indvars.iv.next.i = add nuw nsw i64 %indvars.iv.i, 1
  %13 = load i32, ptr %6, align 8
  %.0.i.i = call noundef i32 @llvm.abs.i32(i32 %13, i1 true)
  %14 = zext nneg i32 %.0.i.i to i64
  %15 = icmp ult i64 %indvars.iv.next.i, %14
  br i1 %15, label %.lr.ph.i, label %_ZN18AdapterFingerPrint9as_stringEv.exit, !llvm.loop !74

_ZN18AdapterFingerPrint9as_stringEv.exit:         ; preds = %.lr.ph.i, %2
  %16 = call noundef ptr @_ZNK12stringStream9as_stringEb(ptr noundef nonnull align 8 dereferenceable(129) %3, i1 noundef zeroext false) #18
  call void @_ZN12stringStreamD1Ev(ptr noundef nonnull align 8 dereferenceable(129) %3) #18
  call void @llvm.lifetime.end.p0(i64 136, ptr nonnull %3)
  call void (ptr, ptr, ...) @_ZN12outputStream5printEPKcz(ptr noundef nonnull align 8 dereferenceable(56) %1, ptr noundef nonnull @.str.50, i64 noundef %4, ptr noundef %16) #18
  %17 = getelementptr inbounds i8, ptr %0, i64 8
  %18 = load ptr, ptr %17, align 8
  %.not = icmp eq ptr %18, null
  br i1 %.not, label %21, label %19

19:                                               ; preds = %_ZN18AdapterFingerPrint9as_stringEv.exit
  %20 = ptrtoint ptr %18 to i64
  call void (ptr, ptr, ...) @_ZN12outputStream5printEPKcz(ptr noundef nonnull align 8 dereferenceable(56) %1, ptr noundef nonnull @.str.51, i64 noundef %20) #18
  br label %21

21:                                               ; preds = %19, %_ZN18AdapterFingerPrint9as_stringEv.exit
  %22 = getelementptr inbounds i8, ptr %0, i64 16
  %23 = load ptr, ptr %22, align 8
  %.not7 = icmp eq ptr %23, null
  br i1 %.not7, label %26, label %24

24:                                               ; preds = %21
  %25 = ptrtoint ptr %23 to i64
  call void (ptr, ptr, ...) @_ZN12outputStream5printEPKcz(ptr noundef nonnull align 8 dereferenceable(56) %1, ptr noundef nonnull @.str.52, i64 noundef %25) #18
  br label %26

26:                                               ; preds = %24, %21
  %27 = getelementptr inbounds i8, ptr %0, i64 24
  %28 = load ptr, ptr %27, align 8
  %.not8 = icmp eq ptr %28, null
  br i1 %.not8, label %31, label %29

29:                                               ; preds = %26
  %30 = ptrtoint ptr %28 to i64
  call void (ptr, ptr, ...) @_ZN12outputStream5printEPKcz(ptr noundef nonnull align 8 dereferenceable(56) %1, ptr noundef nonnull @.str.53, i64 noundef %30) #18
  br label %31

31:                                               ; preds = %29, %26
  %32 = getelementptr inbounds i8, ptr %0, i64 32
  %33 = load ptr, ptr %32, align 8
  %.not9 = icmp eq ptr %33, null
  br i1 %.not9, label %36, label %34

34:                                               ; preds = %31
  %35 = ptrtoint ptr %33 to i64
  call void (ptr, ptr, ...) @_ZN12outputStream5printEPKcz(ptr noundef nonnull align 8 dereferenceable(56) %1, ptr noundef nonnull @.str.54, i64 noundef %35) #18
  br label %36

36:                                               ; preds = %34, %31
  call void @_ZN12outputStream2crEv(ptr noundef nonnull align 8 dereferenceable(56) %1) #18
  ret void
}